target datalayout = "e-m:e-p270:32:32-p271:32:32-p272:64:64-i64:64-i128:128-f80:128-n8:16:32:64-S128"
target triple = "x86_64-pc-linux-gnu"

%"class.std::__cxx11::basic_string" = type { %"struct.std::__cxx11::basic_string<char>::_Alloc_hider", i64, %union.anon }
%"struct.std::__cxx11::basic_string<char>::_Alloc_hider" = type { ptr }
%union.anon = type { i64, [8 x i8] }
%"class.std::allocator" = type { i8 }

@__dso_handle = external hidden global i8
@_ZN3nix8LogStore13operationNameB5cxx11E = linkonce_odr global %"class.std::__cxx11::basic_string" zeroinitializer, comdat, align 8
@_ZGVN3nix8LogStore13operationNameB5cxx11E = linkonce_odr global i64 0, comdat($_ZN3nix8LogStore13operationNameB5cxx11E), align 8
@.str = private unnamed_addr constant [32 x i8] c"Build log storage and retrieval\00", align 1

; Function Attrs: uwtable
define internal void @__cxx_global_var_init.4() #0 section ".text.startup" comdat($_ZN3nix8LogStore13operationNameB5cxx11E) personality ptr @__gxx_personality_v0 {
  %1 = alloca %"class.std::allocator", align 1
  %2 = alloca ptr, align 8
  %3 = alloca i32, align 4
  %4 = load atomic i8, ptr @_ZGVN3nix8LogStore13operationNameB5cxx11E acquire, align 8
  %5 = icmp eq i8 %4, 0
  br i1 %5, label %6, label %12

6:                                                ; preds = %0
  %7 = call i32 @__cxa_guard_acquire(ptr @_ZGVN3nix8LogStore13operationNameB5cxx11E) #1
  %8 = icmp ne i32 %7, 0
  br i1 %8, label %9, label %12

9:                                                ; preds = %6
  call void @_ZNSaIcEC1Ev(ptr noundef nonnull align 1 dereferenceable(1) %1) #1
  invoke void @_ZNSt7__cxx1112basic_stringIcSt11char_traitsIcESaIcEEC2IS3_EEPKcRKS3_(ptr noundef nonnull align 8 dereferenceable(32) @_ZN3nix8LogStore13operationNameB5cxx11E, ptr noundef @.str, ptr noundef nonnull align 1 dereferenceable(1) %1)
          to label %10 unwind label %13

10:                                               ; preds = %9
  call void @_ZNSaIcED1Ev(ptr noundef nonnull align 1 dereferenceable(1) %1) #1
  %11 = call i32 @__cxa_atexit(ptr @_ZNSt7__cxx1112basic_stringIcSt11char_traitsIcESaIcEED2Ev, ptr @_ZN3nix8LogStore13operationNameB5cxx11E, ptr @__dso_handle) #1
  call void @__cxa_guard_release(ptr @_ZGVN3nix8LogStore13operationNameB5cxx11E) #1
  br label %12

12:                                               ; preds = %10, %6, %0
  ret void

13:                                               ; preds = %9
  %14 = landingpad { ptr, i32 }
          cleanup
  %15 = extractvalue { ptr, i32 } %14, 0
  store ptr %15, ptr %2, align 8
  %16 = extractvalue { ptr, i32 } %14, 1
  store i32 %16, ptr %3, align 4
  call void @_ZNSaIcED1Ev(ptr noundef nonnull align 1 dereferenceable(1) %1) #1
  call void @__cxa_guard_abort(ptr @_ZGVN3nix8LogStore13operationNameB5cxx11E) #1
  br label %17

17:                                               ; preds = %13
  %18 = load ptr, ptr %2, align 8
  %19 = load i32, ptr %3, align 4
  %20 = insertvalue { ptr, i32 } poison, ptr %18, 0
  %21 = insertvalue { ptr, i32 } %20, i32 %19, 1
  resume { ptr, i32 } %21
}